; ModuleID = '8/1433.c'
source_filename = "8/1433.c"
target datalayout = "e-m:e-p270:32:32-p271:32:32-p272:64:64-i64:64-f80:128-n8:16:32:64-S128"
target triple = "x86_64-pc-linux-gnu"

@.str = private unnamed_addr constant [5 x i8] c"%d%d\00", align 1
@m = common dso_local global i32 0, align 4
@n = common dso_local global i32 0, align 4
@.str.1 = private unnamed_addr constant [3 x i8] c"%d\00", align 1
@a = common dso_local global [100 x i32] zeroinitializer, align 16
@.str.2 = private unnamed_addr constant [2 x i8] c"\0A\00", align 1
@.str.3 = private unnamed_addr constant [4 x i8] c" %d\00", align 1

; Function Attrs: noinline nounwind uwtable
define dso_local void @insert() #0 {
  %1 = alloca i32, align 4
  store i32 0, i32* %1, align 4
  %2 = call i32 (i8*, ...) @__isoc99_scanf(i8* getelementptr inbounds ([5 x i8], [5 x i8]* @.str, i64 0, i64 0), i32* @m, i32* @n)
  store i32 0, i32* %1, align 4
  br label %3

3:                                                ; preds = %12, %0
  %4 = load i32, i32* %1, align 4
  %5 = load i32, i32* @m, align 4
  %6 = icmp slt i32 %4, %5
  br i1 %6, label %7, label %15

7:                                                ; preds = %3
  %8 = load i32, i32* %1, align 4
  %9 = sext i32 %8 to i64
  %10 = getelementptr inbounds [100 x i32], [100 x i32]* @a, i64 0, i64 %9
  %11 = call i32 (i8*, ...) @__isoc99_scanf(i8* getelementptr inbounds ([3 x i8], [3 x i8]* @.str.1, i64 0, i64 0), i32* %10)
  br label %12

12:                                               ; preds = %7
  %13 = load i32, i32* %1, align 4
  %14 = add nsw i32 %13, 1
  store i32 %14, i32* %1, align 4
  br label %3

15:                                               ; preds = %3
  %16 = call i32 (i8*, ...) @printf(i8* getelementptr inbounds ([2 x i8], [2 x i8]* @.str.2, i64 0, i64 0))
  %17 = load i32, i32* @m, align 4
  store i32 %17, i32* %1, align 4
  br label %18

18:                                               ; preds = %29, %15
  %19 = load i32, i32* %1, align 4
  %20 = load i32, i32* @m, align 4
  %21 = load i32, i32* @n, align 4
  %22 = add nsw i32 %20, %21
  %23 = icmp slt i32 %19, %22
  br i1 %23, label %24, label %32

24:                                               ; preds = %18
  %25 = load i32, i32* %1, align 4
  %26 = sext i32 %25 to i64
  %27 = getelementptr inbounds [100 x i32], [100 x i32]* @a, i64 0, i64 %26
  %28 = call i32 (i8*, ...) @__isoc99_scanf(i8* getelementptr inbounds ([3 x i8], [3 x i8]* @.str.1, i64 0, i64 0), i32* %27)
  br label %29

29:                                               ; preds = %24
  %30 = load i32, i32* %1, align 4
  %31 = add nsw i32 %30, 1
  store i32 %31, i32* %1, align 4
  br label %18

32:                                               ; preds = %18
  ret void
}

declare dso_local i32 @__isoc99_scanf(i8*, ...) #1

declare dso_local i32 @printf(i8*, ...) #1

; Function Attrs: noinline nounwind uwtable
define dso_local void @px(i32* %0) #0 {
  %2 = alloca i32*, align 8
  %3 = alloca i32, align 4
  %4 = alloca i32, align 4
  %5 = alloca i32, align 4
  store i32* %0, i32** %2, align 8
  store i32 0, i32* %5, align 4
  store i32 0, i32* %3, align 4
  br label %6

6:                                                ; preds = %57, %1
  %7 = load i32, i32* %3, align 4
  %8 = load i32, i32* @m, align 4
  %9 = icmp slt i32 %7, %8
  br i1 %9, label %10, label %60

10:                                               ; preds = %6
  %11 = load i32, i32* @m, align 4
  %12 = sub nsw i32 %11, 1
  store i32 %12, i32* %4, align 4
  br label %13

13:                                               ; preds = %53, %10
  %14 = load i32, i32* %4, align 4
  %15 = load i32, i32* %3, align 4
  %16 = icmp sgt i32 %14, %15
  br i1 %16, label %17, label %56

17:                                               ; preds = %13
  %18 = load i32*, i32** %2, align 8
  %19 = load i32, i32* %4, align 4
  %20 = sext i32 %19 to i64
  %21 = getelementptr inbounds i32, i32* %18, i64 %20
  %22 = load i32, i32* %21, align 4
  %23 = load i32*, i32** %2, align 8
  %24 = load i32, i32* %4, align 4
  %25 = sext i32 %24 to i64
  %26 = getelementptr inbounds i32, i32* %23, i64 %25
  %27 = getelementptr inbounds i32, i32* %26, i64 -1
  %28 = load i32, i32* %27, align 4
  %29 = icmp slt i32 %22, %28
  br i1 %29, label %30, label %52

30:                                               ; preds = %17
  %31 = load i32*, i32** %2, align 8
  %32 = load i32, i32* %4, align 4
  %33 = sext i32 %32 to i64
  %34 = getelementptr inbounds i32, i32* %31, i64 %33
  %35 = load i32, i32* %34, align 4
  store i32 %35, i32* %5, align 4
  %36 = load i32*, i32** %2, align 8
  %37 = load i32, i32* %4, align 4
  %38 = sext i32 %37 to i64
  %39 = getelementptr inbounds i32, i32* %36, i64 %38
  %40 = getelementptr inbounds i32, i32* %39, i64 -1
  %41 = load i32, i32* %40, align 4
  %42 = load i32*, i32** %2, align 8
  %43 = load i32, i32* %4, align 4
  %44 = sext i32 %43 to i64
  %45 = getelementptr inbounds i32, i32* %42, i64 %44
  store i32 %41, i32* %45, align 4
  %46 = load i32, i32* %5, align 4
  %47 = load i32*, i32** %2, align 8
  %48 = load i32, i32* %4, align 4
  %49 = sext i32 %48 to i64
  %50 = getelementptr inbounds i32, i32* %47, i64 %49
  %51 = getelementptr inbounds i32, i32* %50, i64 -1
  store i32 %46, i32* %51, align 4
  br label %52

52:                                               ; preds = %30, %17
  br label %53

53:                                               ; preds = %52
  %54 = load i32, i32* %4, align 4
  %55 = add nsw i32 %54, -1
  store i32 %55, i32* %4, align 4
  br label %13

56:                                               ; preds = %13
  br label %57

57:                                               ; preds = %56
  %58 = load i32, i32* %3, align 4
  %59 = add nsw i32 %58, 1
  store i32 %59, i32* %3, align 4
  br label %6

60:                                               ; preds = %6
  %61 = load i32, i32* @m, align 4
  store i32 %61, i32* %3, align 4
  br label %62

62:                                               ; preds = %117, %60
  %63 = load i32, i32* %3, align 4
  %64 = load i32, i32* @m, align 4
  %65 = load i32, i32* @n, align 4
  %66 = add nsw i32 %64, %65
  %67 = icmp slt i32 %63, %66
  br i1 %67, label %68, label %120

68:                                               ; preds = %62
  %69 = load i32, i32* @m, align 4
  %70 = load i32, i32* @n, align 4
  %71 = add nsw i32 %69, %70
  %72 = sub nsw i32 %71, 1
  store i32 %72, i32* %4, align 4
  br label %73

73:                                               ; preds = %113, %68
  %74 = load i32, i32* %4, align 4
  %75 = load i32, i32* %3, align 4
  %76 = icmp sgt i32 %74, %75
  br i1 %76, label %77, label %116

77:                                               ; preds = %73
  %78 = load i32*, i32** %2, align 8
  %79 = load i32, i32* %4, align 4
  %80 = sext i32 %79 to i64
  %81 = getelementptr inbounds i32, i32* %78, i64 %80
  %82 = load i32, i32* %81, align 4
  %83 = load i32*, i32** %2, align 8
  %84 = load i32, i32* %4, align 4
  %85 = sext i32 %84 to i64
  %86 = getelementptr inbounds i32, i32* %83, i64 %85
  %87 = getelementptr inbounds i32, i32* %86, i64 -1
  %88 = load i32, i32* %87, align 4
  %89 = icmp slt i32 %82, %88
  br i1 %89, label %90, label %112

90:                                               ; preds = %77
  %91 = load i32*, i32** %2, align 8
  %92 = load i32, i32* %4, align 4
  %93 = sext i32 %92 to i64
  %94 = getelementptr inbounds i32, i32* %91, i64 %93
  %95 = load i32, i32* %94, align 4
  store i32 %95, i32* %5, align 4
  %96 = load i32*, i32** %2, align 8
  %97 = load i32, i32* %4, align 4
  %98 = sext i32 %97 to i64
  %99 = getelementptr inbounds i32, i32* %96, i64 %98
  %100 = getelementptr inbounds i32, i32* %99, i64 -1
  %101 = load i32, i32* %100, align 4
  %102 = load i32*, i32** %2, align 8
  %103 = load i32, i32* %4, align 4
  %104 = sext i32 %103 to i64
  %105 = getelementptr inbounds i32, i32* %102, i64 %104
  store i32 %101, i32* %105, align 4
  %106 = load i32, i32* %5, align 4
  %107 = load i32*, i32** %2, align 8
  %108 = load i32, i32* %4, align 4
  %109 = sext i32 %108 to i64
  %110 = getelementptr inbounds i32, i32* %107, i64 %109
  %111 = getelementptr inbounds i32, i32* %110, i64 -1
  store i32 %106, i32* %111, align 4
  br label %112

112:                                              ; preds = %90, %77
  br label %113

113:                                              ; preds = %112
  %114 = load i32, i32* %4, align 4
  %115 = add nsw i32 %114, -1
  store i32 %115, i32* %4, align 4
  br label %73

116:                                              ; preds = %73
  br label %117

117:                                              ; preds = %116
  %118 = load i32, i32* %3, align 4
  %119 = add nsw i32 %118, 1
  store i32 %119, i32* %3, align 4
  br label %62

120:                                              ; preds = %62
  %121 = load i32*, i32** %2, align 8
  %122 = getelementptr inbounds i32, i32* %121, i64 0
  %123 = load i32, i32* %122, align 4
  %124 = call i32 (i8*, ...) @printf(i8* getelementptr inbounds ([3 x i8], [3 x i8]* @.str.1, i64 0, i64 0), i32 %123)
  store i32 1, i32* %3, align 4
  br label %125

125:                                              ; preds = %138, %120
  %126 = load i32, i32* %3, align 4
  %127 = load i32, i32* @m, align 4
  %128 = load i32, i32* @n, align 4
  %129 = add nsw i32 %127, %128
  %130 = icmp slt i32 %126, %129
  br i1 %130, label %131, label %141

131:                                              ; preds = %125
  %132 = load i32*, i32** %2, align 8
  %133 = load i32, i32* %3, align 4
  %134 = sext i32 %133 to i64
  %135 = getelementptr inbounds i32, i32* %132, i64 %134
  %136 = load i32, i32* %135, align 4
  %137 = call i32 (i8*, ...) @printf(i8* getelementptr inbounds ([4 x i8], [4 x i8]* @.str.3, i64 0, i64 0), i32 %136)
  br label %138

138:                                              ; preds = %131
  %139 = load i32, i32* %3, align 4
  %140 = add nsw i32 %139, 1
  store i32 %140, i32* %3, align 4
  br label %125

141:                                              ; preds = %125
  ret void
}

; Function Attrs: noinline nounwind uwtable
define dso_local void @main() #0 {
  call void @insert()
  call void @px(i32* getelementptr inbounds ([100 x i32], [100 x i32]* @a, i64 0, i64 0))
  ret void
}


!llvm.module.flags = !{!0}
!llvm.ident = !{!1}

!0 = !{i32 1, !"wchar_size", i32 4}
!1 = !{!"clang version 10.0.0-4ubuntu1 "}
